target datalayout = "e-m:e-p270:32:32-p271:32:32-p272:64:64-i64:64-i128:128-f80:128-n8:16:32:64-S128"
target triple = "x86_64-unknown-linux-gnu"

%"class.std::__shared_count" = type { ptr }
%"class.std::__shared_ptr" = type { ptr, %"class.std::__shared_count" }
%"class.std::optional" = type { %"struct.std::_Optional_base" }
%"struct.std::_Optional_base" = type { %"struct.std::_Optional_payload" }
%"struct.std::_Optional_payload" = type { %"struct.std::_Optional_payload_base.base", [3 x i8] }
%"struct.std::_Optional_payload_base.base" = type <{ %"union.std::_Optional_payload_base<int>::_Storage", i8 }>
%"union.std::_Optional_payload_base<int>::_Storage" = type { i32 }
%"class.boost::intrusive_ptr" = type { ptr }
%"class.facebook::velox::BaseVector" = type <{ ptr, %"class.std::shared_ptr.11", i8, [3 x i8], i32, %"class.boost::intrusive_ptr", ptr, ptr, i32, %"class.std::optional", %"class.std::optional", %"class.std::optional", %"class.std::optional", i32, i8, i8, i8, [5 x i8] }>
%"class.std::shared_ptr.11" = type { %"class.std::__shared_ptr.12" }
%"class.std::__shared_ptr.12" = type { ptr, %"class.std::__shared_count" }

@_ZTIN8facebook5velox10BaseVectorE = external constant ptr
@_ZTIN8facebook5velox9RowVectorE = external constant ptr

; Function Attrs: mustprogress nounwind uwtable
define linkonce_odr noundef ptr @_ZNKSt12__shared_ptrIN8facebook5velox10BaseVectorELN9__gnu_cxx12_Lock_policyE2EE3getEv(ptr noundef nonnull align 8 dereferenceable(16) %this) #4 comdat align 2 {
entry:
  %this.addr = alloca ptr, align 8
  store ptr %this, ptr %this.addr, align 8
  %this1 = load ptr, ptr %this.addr, align 8
  %_M_ptr = getelementptr inbounds %"class.std::__shared_ptr", ptr %this1, i32 0, i32 0
  %0 = load ptr, ptr %_M_ptr, align 8
  ret ptr %0
}

; Function Attrs: mustprogress nounwind uwtable
define linkonce_odr noundef ptr @_ZNK5boost13intrusive_ptrIN8facebook5velox6BufferEE3getEv(ptr noundef nonnull align 8 dereferenceable(8) %this) #4 comdat align 2 {
entry:
  %this.addr = alloca ptr, align 8
  store ptr %this, ptr %this.addr, align 8
  %this1 = load ptr, ptr %this.addr, align 8
  %px = getelementptr inbounds %"class.boost::intrusive_ptr", ptr %this1, i32 0, i32 0
  %0 = load ptr, ptr %px, align 8
  ret ptr %0
}

; Function Attrs: mustprogress nounwind uwtable
define linkonce_odr noundef ptr @_ZNKSt19__shared_ptr_accessIN8facebook5velox10BaseVectorELN9__gnu_cxx12_Lock_policyE2ELb0ELb0EE6_M_getEv(ptr noundef nonnull align 1 dereferenceable(1) %this) #4 comdat align 2 {
entry:
  %this.addr = alloca ptr, align 8
  store ptr %this, ptr %this.addr, align 8
  %this1 = load ptr, ptr %this.addr, align 8
  %call = call noundef ptr @_ZNKSt12__shared_ptrIN8facebook5velox10BaseVectorELN9__gnu_cxx12_Lock_policyE2EE3getEv(ptr noundef nonnull align 8 dereferenceable(16) %this1) #3
  ret ptr %call
}

; Function Attrs: mustprogress nounwind uwtable
define linkonce_odr noundef zeroext i1 @_ZN5boosteqIN8facebook5velox6BufferEEEbRKNS_13intrusive_ptrIT_EEDn(ptr noundef nonnull align 8 dereferenceable(8) %p, ptr %0) #4 comdat {
entry:
  %p.addr = alloca ptr, align 8
  %.addr = alloca ptr, align 8
  store ptr %p, ptr %p.addr, align 8
  store ptr %0, ptr %.addr, align 8
  %1 = load ptr, ptr %p.addr, align 8
  %call = call noundef ptr @_ZNK5boost13intrusive_ptrIN8facebook5velox6BufferEE3getEv(ptr noundef nonnull align 8 dereferenceable(8) %1) #3
  %cmp = icmp eq ptr %call, null
  ret i1 %cmp
}

; Function Attrs: mustprogress nounwind uwtable
define linkonce_odr noundef nonnull align 8 dereferenceable(8) ptr @_ZNK8facebook5velox10BaseVector5nullsEv(ptr noundef nonnull align 8 dereferenceable(99) %this) #4 comdat align 2 {
entry:
  %this.addr = alloca ptr, align 8
  store ptr %this, ptr %this.addr, align 8
  %this1 = load ptr, ptr %this.addr, align 8
  %nulls_ = getelementptr inbounds %"class.facebook::velox::BaseVector", ptr %this1, i32 0, i32 5
  ret ptr %nulls_
}

; Function Attrs: mustprogress nounwind uwtable
define linkonce_odr noundef ptr @_ZN8facebook5velox10BaseVector2asINS0_9RowVectorEEEPT_v(ptr noundef nonnull align 8 dereferenceable(99) %this) #4 comdat align 2 {
entry:
  %this.addr = alloca ptr, align 8
  store ptr %this, ptr %this.addr, align 8
  %this1 = load ptr, ptr %this.addr, align 8
  %0 = icmp eq ptr %this1, null
  br i1 %0, label %dynamic_cast.null, label %dynamic_cast.notnull

dynamic_cast.notnull:                             ; preds = %entry
  %1 = call ptr @__dynamic_cast(ptr %this1, ptr @_ZTIN8facebook5velox10BaseVectorE, ptr @_ZTIN8facebook5velox9RowVectorE, i64 0) #3
  br label %dynamic_cast.end

dynamic_cast.null:                                ; preds = %entry
  br label %dynamic_cast.end

dynamic_cast.end:                                 ; preds = %dynamic_cast.null, %dynamic_cast.notnull
  %2 = phi ptr [ %1, %dynamic_cast.notnull ], [ null, %dynamic_cast.null ]
  ret ptr %2
}

; Function Attrs: mustprogress nounwind uwtable
define linkonce_odr noundef signext i8 @_ZNK8facebook5velox10BaseVector8typeKindEv(ptr noundef nonnull align 8 dereferenceable(99) %this) #4 comdat align 2 {
entry:
  %this.addr = alloca ptr, align 8
  store ptr %this, ptr %this.addr, align 8
  %this1 = load ptr, ptr %this.addr, align 8
  %typeKind_ = getelementptr inbounds %"class.facebook::velox::BaseVector", ptr %this1, i32 0, i32 2
  %0 = load i8, ptr %typeKind_, align 8
  ret i8 %0
}

; Function Attrs: mustprogress nounwind uwtable
define linkonce_odr noundef ptr @_ZNKSt19__shared_ptr_accessIN8facebook5velox10BaseVectorELN9__gnu_cxx12_Lock_policyE2ELb0ELb0EEptEv(ptr noundef nonnull align 1 dereferenceable(1) %this) #4 comdat align 2 {
entry:
  %this.addr = alloca ptr, align 8
  store ptr %this, ptr %this.addr, align 8
  %this1 = load ptr, ptr %this.addr, align 8
  %call = call noundef ptr @_ZNKSt19__shared_ptr_accessIN8facebook5velox10BaseVectorELN9__gnu_cxx12_Lock_policyE2ELb0ELb0EE6_M_getEv(ptr noundef nonnull align 1 dereferenceable(1) %this1) #3
  ret ptr %call
}

; Function Attrs: mustprogress uwtable
define noundef zeroext i1 @_ZN8facebook5velox21canWrapRowChildInLazyERKSt10shared_ptrINS0_10BaseVectorEE(ptr noundef nonnull align 8 dereferenceable(16) %baseRowVector) #5 {
entry:
  %retval = alloca i1, align 1
  %baseRowVector.addr = alloca ptr, align 8
  %rowVector = alloca ptr, align 8
  store ptr %baseRowVector, ptr %baseRowVector.addr, align 8
  %0 = load ptr, ptr %baseRowVector.addr, align 8
  %call = call noundef ptr @_ZNKSt19__shared_ptr_accessIN8facebook5velox10BaseVectorELN9__gnu_cxx12_Lock_policyE2ELb0ELb0EEptEv(ptr noundef nonnull align 1 dereferenceable(1) %0) #3
  %call1 = call noundef signext i8 @_ZNK8facebook5velox10BaseVector8typeKindEv(ptr noundef nonnull align 8 dereferenceable(99) %call)
  %cmp = icmp eq i8 %call1, 32
  br i1 %cmp, label %if.then, label %if.end7

if.then:                                          ; preds = %entry
  %1 = load ptr, ptr %baseRowVector.addr, align 8
  %call2 = call noundef ptr @_ZNKSt19__shared_ptr_accessIN8facebook5velox10BaseVectorELN9__gnu_cxx12_Lock_policyE2ELb0ELb0EEptEv(ptr noundef nonnull align 1 dereferenceable(1) %1) #3
  %call3 = call noundef ptr @_ZN8facebook5velox10BaseVector2asINS0_9RowVectorEEEPT_v(ptr noundef nonnull align 8 dereferenceable(99) %call2)
  store ptr %call3, ptr %rowVector, align 8
  %2 = load ptr, ptr %rowVector, align 8
  %tobool = icmp ne ptr %2, null
  br i1 %tobool, label %if.then4, label %if.end

if.then4:                                         ; preds = %if.then
  %3 = load ptr, ptr %rowVector, align 8
  %call5 = call noundef nonnull align 8 dereferenceable(8) ptr @_ZNK8facebook5velox10BaseVector5nullsEv(ptr noundef nonnull align 8 dereferenceable(99) %3)
  %call6 = call noundef zeroext i1 @_ZN5boosteqIN8facebook5velox6BufferEEEbRKNS_13intrusive_ptrIT_EEDn(ptr noundef nonnull align 8 dereferenceable(8) %call5, ptr null) #3
  store i1 %call6, ptr %retval, align 1
  br label %return

if.end:                                           ; preds = %if.then
  br label %if.end7

if.end7:                                          ; preds = %if.end, %entry
  store i1 false, ptr %retval, align 1
  br label %return

return:                                           ; preds = %if.end7, %if.then4
  %4 = load i1, ptr %retval, align 1
  ret i1 %4
}