; Function Attrs: mustprogress nofree nounwind willreturn memory(read) uwtable
define noundef zeroext i1 @_ZN8facebook5velox21canWrapRowChildInLazyERKSt10shared_ptrINS0_10BaseVectorEE(ptr nocapture noundef nonnull readonly align 8 dereferenceable(16) %baseRowVector) local_unnamed_addr #6 {
entry:
  %0 = load ptr, ptr %baseRowVector, align 8
  %typeKind_.i = getelementptr inbounds i8, ptr %0, i64 24
  %1 = load i8, ptr %typeKind_.i, align 8
  %cmp = icmp eq i8 %1, 32
  br i1 %cmp, label %if.then, label %return

if.then:                                          ; preds = %entry
  %2 = tail call noundef ptr @__dynamic_cast(ptr nonnull %0, ptr nonnull @_ZTIN8facebook5velox10BaseVectorE, ptr nonnull @_ZTIN8facebook5velox9RowVectorE, i64 0) #34
  %tobool.not = icmp eq ptr %2, null
  br i1 %tobool.not, label %return, label %if.then4

if.then4:                                         ; preds = %if.then
  %nulls_.i = getelementptr inbounds i8, ptr %2, i64 32
  %3 = load ptr, ptr %nulls_.i, align 8
  %cmp.i = icmp eq ptr %3, null
  br label %return

return:                                           ; preds = %entry, %if.then, %if.then4
  %retval.0 = phi i1 [ %cmp.i, %if.then4 ], [ false, %if.then ], [ false, %entry ]
  ret i1 %retval.0
}